target datalayout = "e-m:e-p270:32:32-p271:32:32-p272:64:64-i64:64-i128:128-f80:128-n8:16:32:64-S128"
target triple = "x86_64-pc-linux-gnu"

%"struct.std::_Rb_tree_header" = type { %"struct.std::_Rb_tree_node_base", i64 }
%"struct.std::_Rb_tree_node_base" = type { i32, ptr, ptr, ptr }
%"class.std::__cxx11::basic_string" = type { %"struct.std::__cxx11::basic_string<char>::_Alloc_hider", i64, %union.anon }
%"struct.std::__cxx11::basic_string<char>::_Alloc_hider" = type { ptr }
%union.anon = type { i64, [8 x i8] }
%struct.DyndepLoader = type { ptr, ptr, %struct.OptionalExplanations }
%struct.OptionalExplanations = type { ptr }
%struct.Node = type <{ %"class.std::__cxx11::basic_string", i64, i64, i32, i8, i8, i8, i8, ptr, %"class.std::vector", %"class.std::vector", i32, [4 x i8] }>
%"class.std::vector" = type { %"struct.std::_Vector_base" }
%"struct.std::_Vector_base" = type { %"struct.std::_Vector_base<Edge *, std::allocator<Edge *>>::_Vector_impl" }
%"struct.std::_Vector_base<Edge *, std::allocator<Edge *>>::_Vector_impl" = type { %"struct.std::_Vector_base<Edge *, std::allocator<Edge *>>::_Vector_impl_data" }
%"struct.std::_Vector_base<Edge *, std::allocator<Edge *>>::_Vector_impl_data" = type { ptr, ptr, ptr }
%struct.DyndepParser = type { %struct.Parser, ptr, %struct.BindingEnv }
%struct.Parser = type { ptr, ptr, ptr, %struct.Lexer }
%struct.Lexer = type { %struct.StringPiece, %struct.StringPiece, ptr, ptr }
%struct.StringPiece = type { ptr, i64 }
%struct.BindingEnv = type { %struct.Env, %"class.std::map.11", %"class.std::map.17", ptr }
%struct.Env = type { ptr }
%"class.std::map.11" = type { %"class.std::_Rb_tree.12" }
%"class.std::_Rb_tree.12" = type { %"struct.std::_Rb_tree<std::__cxx11::basic_string<char>, std::pair<const std::__cxx11::basic_string<char>, std::__cxx11::basic_string<char>>, std::_Select1st<std::pair<const std::__cxx11::basic_string<char>, std::__cxx11::basic_string<char>>>, std::less<std::__cxx11::basic_string<char>>>::_Rb_tree_impl" }
%"struct.std::_Rb_tree<std::__cxx11::basic_string<char>, std::pair<const std::__cxx11::basic_string<char>, std::__cxx11::basic_string<char>>, std::_Select1st<std::pair<const std::__cxx11::basic_string<char>, std::__cxx11::basic_string<char>>>, std::less<std::__cxx11::basic_string<char>>>::_Rb_tree_impl" = type { [8 x i8], %"struct.std::_Rb_tree_header" }
%"class.std::map.17" = type { %"class.std::_Rb_tree.18" }
%"class.std::_Rb_tree.18" = type { %"struct.std::_Rb_tree<std::__cxx11::basic_string<char>, std::pair<const std::__cxx11::basic_string<char>, std::unique_ptr<const Rule>>, std::_Select1st<std::pair<const std::__cxx11::basic_string<char>, std::unique_ptr<const Rule>>>, std::less<std::__cxx11::basic_string<char>>>::_Rb_tree_impl" }
%"struct.std::_Rb_tree<std::__cxx11::basic_string<char>, std::pair<const std::__cxx11::basic_string<char>, std::unique_ptr<const Rule>>, std::_Select1st<std::pair<const std::__cxx11::basic_string<char>, std::unique_ptr<const Rule>>>, std::less<std::__cxx11::basic_string<char>>>::_Rb_tree_impl" = type { [8 x i8], %"struct.std::_Rb_tree_header" }

; Function Attrs: mustprogress nounwind uwtable
define linkonce_odr dso_local noundef nonnull align 8 dereferenceable(32) ptr @_ZNK4Node4pathB5cxx11Ev(ptr noundef nonnull align 8 dereferenceable(116) %0) #3 comdat align 2 {
  %2 = alloca ptr, align 8
  store ptr %0, ptr %2, align 8, !tbaa !9
  %3 = load ptr, ptr %2, align 8
  %4 = getelementptr inbounds nuw %struct.Node, ptr %3, i32 0, i32 0
  ret ptr %4
}

; Function Attrs: mustprogress uwtable
define dso_local noundef zeroext i1 @_ZNK12DyndepLoader14LoadDyndepFileEP4NodeP10DyndepFilePNSt7__cxx1112basic_stringIcSt11char_traitsIcESaIcEEE(ptr noundef nonnull align 8 dereferenceable(24) %0, ptr noundef %1, ptr noundef %2, ptr noundef %3) #0 align 2 personality ptr @__gxx_personality_v0 {
  %5 = alloca ptr, align 8
  %6 = alloca ptr, align 8
  %7 = alloca ptr, align 8
  %8 = alloca ptr, align 8
  %9 = alloca %struct.DyndepParser, align 8
  %10 = alloca ptr, align 8
  %11 = alloca i32, align 4
  store ptr %0, ptr %5, align 8, !tbaa !4
  store ptr %1, ptr %6, align 8, !tbaa !9
  store ptr %2, ptr %7, align 8, !tbaa !13
  store ptr %3, ptr %8, align 8, !tbaa !11
  %12 = load ptr, ptr %5, align 8
  call void @llvm.lifetime.start.p0(i64 192, ptr %9) #18
  %13 = getelementptr inbounds nuw %struct.DyndepLoader, ptr %12, i32 0, i32 0
  %14 = load ptr, ptr %13, align 8, !tbaa !65
  %15 = getelementptr inbounds nuw %struct.DyndepLoader, ptr %12, i32 0, i32 1
  %16 = load ptr, ptr %15, align 8, !tbaa !69
  %17 = load ptr, ptr %7, align 8, !tbaa !13
  call void @_ZN12DyndepParserC1EP5StateP10FileReaderP10DyndepFile(ptr noundef nonnull align 8 dereferenceable(192) %9, ptr noundef %14, ptr noundef %16, ptr noundef %17)
  %18 = load ptr, ptr %6, align 8, !tbaa !9
  %19 = invoke noundef nonnull align 8 dereferenceable(32) ptr @_ZNK4Node4pathB5cxx11Ev(ptr noundef nonnull align 8 dereferenceable(116) %18)
          to label %20 unwind label %24

20:                                               ; preds = %4
  %21 = load ptr, ptr %8, align 8, !tbaa !11
  %22 = invoke noundef zeroext i1 @_ZN6Parser4LoadERKNSt7__cxx1112basic_stringIcSt11char_traitsIcESaIcEEEPS5_P5Lexer(ptr noundef nonnull align 8 dereferenceable(72) %9, ptr noundef nonnull align 8 dereferenceable(32) %19, ptr noundef %21, ptr noundef null)
          to label %23 unwind label %24

23:                                               ; preds = %20
  call void @_ZN12DyndepParserD2Ev(ptr noundef nonnull align 8 dereferenceable(192) %9) #18
  call void @llvm.lifetime.end.p0(i64 192, ptr %9) #18
  ret i1 %22

24:                                               ; preds = %20, %4
  %25 = landingpad { ptr, i32 }
          cleanup
  %26 = extractvalue { ptr, i32 } %25, 0
  store ptr %26, ptr %10, align 8
  %27 = extractvalue { ptr, i32 } %25, 1
  store i32 %27, ptr %11, align 4
  call void @_ZN12DyndepParserD2Ev(ptr noundef nonnull align 8 dereferenceable(192) %9) #18
  call void @llvm.lifetime.end.p0(i64 192, ptr %9) #18
  br label %28

28:                                               ; preds = %24
  %29 = load ptr, ptr %10, align 8
  %30 = load i32, ptr %11, align 4
  %31 = insertvalue { ptr, i32 } poison, ptr %29, 0
  %32 = insertvalue { ptr, i32 } %31, i32 %30, 1
  resume { ptr, i32 } %32
}