; Function Attrs: mustprogress uwtable
define dso_local noundef zeroext i1 @_ZNK12DyndepLoader14LoadDyndepFileEP4NodeP10DyndepFilePNSt7__cxx1112basic_stringIcSt11char_traitsIcESaIcEEE(ptr noundef nonnull readonly align 8 captures(none) dereferenceable(24) %0, ptr noundef %1, ptr noundef %2, ptr noundef %3) local_unnamed_addr #0 align 2 personality ptr @__gxx_personality_v0 {
  %5 = alloca %struct.DyndepParser, align 8
  call void @llvm.lifetime.start.p0(i64 192, ptr nonnull %5) #19
  %6 = load ptr, ptr %0, align 8, !tbaa !83
  %7 = getelementptr inbounds nuw i8, ptr %0, i64 8
  %8 = load ptr, ptr %7, align 8, !tbaa !87
  call void @_ZN12DyndepParserC1EP5StateP10FileReaderP10DyndepFile(ptr noundef nonnull align 8 dereferenceable(192) %5, ptr noundef %6, ptr noundef %8, ptr noundef %2)
  %9 = invoke noundef zeroext i1 @_ZN6Parser4LoadERKNSt7__cxx1112basic_stringIcSt11char_traitsIcESaIcEEEPS5_P5Lexer(ptr noundef nonnull align 8 dereferenceable(72) %5, ptr noundef nonnull align 8 dereferenceable(32) %1, ptr noundef %3, ptr noundef null)
          to label %10 unwind label %24

10:                                               ; preds = %4
  store ptr getelementptr inbounds nuw inrange(-16, 24) (i8, ptr @_ZTV12DyndepParser, i64 16), ptr %5, align 8, !tbaa !88
  %11 = getelementptr inbounds nuw i8, ptr %5, i64 80
  store ptr getelementptr inbounds nuw inrange(-16, 24) (i8, ptr @_ZTV10BindingEnv, i64 16), ptr %11, align 8, !tbaa !88
  %12 = getelementptr inbounds nuw i8, ptr %5, i64 136
  %13 = getelementptr inbounds nuw i8, ptr %5, i64 152
  %14 = load ptr, ptr %13, align 8, !tbaa !13
  invoke void @_ZNSt8_Rb_treeINSt7__cxx1112basic_stringIcSt11char_traitsIcESaIcEEESt4pairIKS5_St10unique_ptrIK4RuleSt14default_deleteISA_EEESt10_Select1stISE_ESt4lessIS5_ESaISE_EE8_M_eraseEPSt13_Rb_tree_nodeISE_E(ptr noundef nonnull align 8 dereferenceable(48) %12, ptr noundef %14)
          to label %_ZNSt3mapINSt7__cxx1112basic_stringIcSt11char_traitsIcESaIcEEESt10unique_ptrIK4RuleSt14default_deleteIS8_EESt4lessIS5_ESaISt4pairIKS5_SB_EEED2Ev.exit.i.i unwind label %15

15:                                               ; preds = %10
  %16 = landingpad { ptr, i32 }
          catch ptr null
  %17 = extractvalue { ptr, i32 } %16, 0
  call void @__clang_call_terminate(ptr %17) #20
  unreachable

_ZNSt3mapINSt7__cxx1112basic_stringIcSt11char_traitsIcESaIcEEESt10unique_ptrIK4RuleSt14default_deleteIS8_EESt4lessIS5_ESaISt4pairIKS5_SB_EEED2Ev.exit.i.i: ; preds = %10
  %18 = getelementptr inbounds nuw i8, ptr %5, i64 88
  %19 = getelementptr inbounds nuw i8, ptr %5, i64 104
  %20 = load ptr, ptr %19, align 8, !tbaa !13
  invoke void @_ZNSt8_Rb_treeINSt7__cxx1112basic_stringIcSt11char_traitsIcESaIcEEESt4pairIKS5_S5_ESt10_Select1stIS8_ESt4lessIS5_ESaIS8_EE8_M_eraseEPSt13_Rb_tree_nodeIS8_E(ptr noundef nonnull align 8 dereferenceable(48) %18, ptr noundef %20)
          to label %_ZN12DyndepParserD2Ev.exit unwind label %21

21:                                               ; preds = %_ZNSt3mapINSt7__cxx1112basic_stringIcSt11char_traitsIcESaIcEEESt10unique_ptrIK4RuleSt14default_deleteIS8_EESt4lessIS5_ESaISt4pairIKS5_SB_EEED2Ev.exit.i.i
  %22 = landingpad { ptr, i32 }
          catch ptr null
  %23 = extractvalue { ptr, i32 } %22, 0
  call void @__clang_call_terminate(ptr %23) #20
  unreachable

_ZN12DyndepParserD2Ev.exit:                       ; preds = %_ZNSt3mapINSt7__cxx1112basic_stringIcSt11char_traitsIcESaIcEEESt10unique_ptrIK4RuleSt14default_deleteIS8_EESt4lessIS5_ESaISt4pairIKS5_SB_EEED2Ev.exit.i.i
  call void @llvm.lifetime.end.p0(i64 192, ptr nonnull %5) #19
  ret i1 %9

24:                                               ; preds = %4
  %25 = landingpad { ptr, i32 }
          cleanup
  call void @_ZN12DyndepParserD2Ev(ptr noundef nonnull align 8 dereferenceable(192) %5) #19
  call void @llvm.lifetime.end.p0(i64 192, ptr nonnull %5) #19
  resume { ptr, i32 } %25
}